; Function Attrs: nounwind uwtable
define hidden zeroext i1 @je_pages_purge_forced(ptr noundef %0, i64 noundef %1) local_unnamed_addr #0 {
  %3 = load i32, ptr @madvise_dont_need_zeros_is_faulty, align 4, !tbaa !4
  %.not = icmp eq i32 %3, 0
  br i1 %.not, label %4, label %7, !prof !16

4:                                                ; preds = %2
  %5 = tail call i32 @madvise(ptr noundef %0, i64 noundef %1, i32 noundef 4) #8
  %6 = icmp ne i32 %5, 0
  br label %7

7:                                                ; preds = %4, %2
  %8 = phi i1 [ true, %2 ], [ %6, %4 ]
  ret i1 %8
}